target datalayout = "e-m:e-p270:32:32-p271:32:32-p272:64:64-i64:64-i128:128-f80:128-n8:16:32:64-S128"
target triple = "x86_64-pc-linux-gnu"

%struct.xcgroup_ns_t = type { ptr, ptr, ptr, ptr }
%struct.xcgroup_t = type { ptr, ptr, ptr, i32, i32, i32 }
%struct.stepd_step_rec_t = type { ptr, ptr, i32, %union.pthread_cond_t, %union.pthread_mutex_t, %struct.slurm_step_id_msg, i32, i32, i32, i32, i32, i32, ptr, ptr, i32, i32, ptr, i32, i32, i32, i32, i32, ptr, ptr, ptr, ptr, i32, i32, i64, i64, i16, i32, ptr, ptr, ptr, i32, ptr, i32, ptr, i32, ptr, i16, i32, i32, i32, ptr, i32, ptr, ptr, ptr, ptr, i32, i32, ptr, ptr, i8, i8, i8, i64, i32, ptr, ptr, ptr, ptr, ptr, ptr, ptr, ptr, ptr, ptr, i32, i32, ptr, i8, %union.pthread_cond_t, %union.pthread_mutex_t, i64, ptr, i32, i32, i32, ptr, i64, ptr, ptr, i8, ptr, i16, ptr, ptr, ptr, ptr, ptr, ptr, i64, ptr, i64, ptr, i16, i8, i16, i32, ptr, i16, ptr, ptr, i16, ptr, ptr, ptr, i8 }
%struct.slurm_step_id_msg = type { i64, i32, i32, i32 }
%union.pthread_cond_t = type { %struct.__pthread_cond_s }
%struct.__pthread_cond_s = type { %union.__atomic_wide_counter, %union.__atomic_wide_counter, [2 x i32], [2 x i32], i32, i32, [2 x i32] }
%union.__atomic_wide_counter = type { i64 }
%union.pthread_mutex_t = type { %struct.__pthread_mutex_s }
%struct.__pthread_mutex_s = type { i32, i32, i32, i32, i32, i16, i16, %struct.__pthread_internal_list }
%struct.__pthread_internal_list = type { ptr, ptr }

@int_cg_ns = internal global %struct.xcgroup_ns_t zeroinitializer, align 8
@step_active_cnt = internal global i16 0, align 2
@int_cg = internal global [9 x %struct.xcgroup_t] zeroinitializer, align 16
@ctl_names = internal global [5 x ptr] [ptr @.str.173, ptr @.str.174, ptr @.str.175, ptr @.str.176, ptr @.str.177], align 16
@.str.14 = private unnamed_addr constant [30 x i8] c"common_cgroup_lock error (%s)\00", align 1
@.str.15 = private unnamed_addr constant [8 x i8] c"/job_%u\00", align 1
@.str.16 = private unnamed_addr constant [31 x i8] c"unable to create job %u cgroup\00", align 1
@.str.17 = private unnamed_addr constant [36 x i8] c"unable to instantiate job %u cgroup\00", align 1
@.str.18 = private unnamed_addr constant [11 x i8] c"%s/step_%s\00", align 1
@.str.19 = private unnamed_addr constant [33 x i8] c"unable to create step %ps cgroup\00", align 1
@.str.20 = private unnamed_addr constant [38 x i8] c"unable to instantiate step %ps cgroup\00", align 1
@.str.21 = private unnamed_addr constant [8 x i8] c"%s/user\00", align 1
@.str.22 = private unnamed_addr constant [44 x i8] c"unable to create step %ps user procs cgroup\00", align 1
@.str.23 = private unnamed_addr constant [49 x i8] c"unable to instantiate step %ps user procs cgroup\00", align 1
@.str.24 = private unnamed_addr constant [9 x i8] c"%s/slurm\00", align 1
@.str.25 = private unnamed_addr constant [45 x i8] c"unable to create step %ps slurm procs cgroup\00", align 1
@.str.26 = private unnamed_addr constant [50 x i8] c"unable to instantiate step %ps slurm procs cgroup\00", align 1
@.str.27 = private unnamed_addr constant [49 x i8] c"unable to move stepd pid to its dedicated cgroup\00", align 1

; Function Attrs: nounwind uwtable
define dso_local i32 @cgroup_p_step_create(i32 noundef %0, ptr noundef %1) #0 {
  %3 = alloca i32, align 4
  %4 = alloca i32, align 4
  %5 = alloca ptr, align 8
  %6 = alloca i32, align 4
  %7 = alloca ptr, align 8
  %8 = alloca [64 x i8], align 16
  %9 = alloca i32, align 4
  store i32 %0, ptr %4, align 4
  store ptr %1, ptr %5, align 8
  call void @llvm.lifetime.start.p0(i64 4, ptr %6) #10
  store i32 0, ptr %6, align 4
  call void @llvm.lifetime.start.p0(i64 8, ptr %7) #10
  store ptr null, ptr %7, align 8
  call void @llvm.lifetime.start.p0(i64 64, ptr %8) #10
  %10 = call i32 @common_cgroup_lock(ptr noundef @int_cg)
  %11 = icmp ne i32 %10, 0
  br i1 %11, label %12, label %18

12:                                               ; preds = %2
  %13 = load i32, ptr %4, align 4
  %14 = zext i32 %13 to i64
  %15 = getelementptr inbounds nuw [5 x ptr], ptr @ctl_names, i64 0, i64 %14
  %16 = load ptr, ptr %15, align 8
  %17 = call i32 (ptr, ...) @error(ptr noundef @.str.14, ptr noundef %16)
  store i32 -1, ptr %3, align 4
  store i32 1, ptr %9, align 4
  br label %122

18:                                               ; preds = %2
  %19 = load i16, ptr @step_active_cnt, align 2
  %20 = add i16 %19, 1
  store i16 %20, ptr @step_active_cnt, align 2
  %21 = load ptr, ptr %5, align 8
  %22 = getelementptr inbounds nuw %struct.stepd_step_rec_t, ptr %21, i32 0, i32 5
  %23 = getelementptr inbounds nuw %struct.slurm_step_id_msg, ptr %22, i32 0, i32 1
  %24 = load i32, ptr %23, align 8
  call void (ptr, ptr, ...) @_xstrfmtcat(ptr noundef %7, ptr noundef @.str.15, i32 noundef %24)
  %25 = load ptr, ptr %7, align 8
  %26 = call i32 @common_cgroup_create(ptr noundef @int_cg_ns, ptr noundef getelementptr inbounds ([9 x %struct.xcgroup_t], ptr @int_cg, i64 0, i64 3), ptr noundef %25, i32 noundef 0, i32 noundef 0)
  %27 = icmp ne i32 %26, 0
  br i1 %27, label %28, label %34

28:                                               ; preds = %18
  %29 = load ptr, ptr %5, align 8
  %30 = getelementptr inbounds nuw %struct.stepd_step_rec_t, ptr %29, i32 0, i32 5
  %31 = getelementptr inbounds nuw %struct.slurm_step_id_msg, ptr %30, i32 0, i32 1
  %32 = load i32, ptr %31, align 8
  %33 = call i32 (ptr, ...) @error(ptr noundef @.str.16, i32 noundef %32)
  store i32 -1, ptr %6, align 4
  br label %114

34:                                               ; preds = %18
  %35 = call i32 @common_cgroup_instantiate(ptr noundef getelementptr inbounds ([9 x %struct.xcgroup_t], ptr @int_cg, i64 0, i64 3))
  %36 = icmp ne i32 %35, 0
  br i1 %36, label %37, label %43

37:                                               ; preds = %34
  call void @common_cgroup_destroy(ptr noundef getelementptr inbounds ([9 x %struct.xcgroup_t], ptr @int_cg, i64 0, i64 3))
  %38 = load ptr, ptr %5, align 8
  %39 = getelementptr inbounds nuw %struct.stepd_step_rec_t, ptr %38, i32 0, i32 5
  %40 = getelementptr inbounds nuw %struct.slurm_step_id_msg, ptr %39, i32 0, i32 1
  %41 = load i32, ptr %40, align 8
  %42 = call i32 (ptr, ...) @error(ptr noundef @.str.17, i32 noundef %41)
  store i32 -1, ptr %6, align 4
  br label %114

43:                                               ; preds = %34
  call void @slurm_xfree(ptr noundef %7)
  %44 = load ptr, ptr getelementptr inbounds nuw (%struct.xcgroup_t, ptr getelementptr inbounds ([9 x %struct.xcgroup_t], ptr @int_cg, i64 0, i64 3), i32 0, i32 2), align 8
  %45 = load ptr, ptr @int_cg_ns, align 8
  %46 = call i32 @_enable_subtree_control(ptr noundef %44, ptr noundef %45)
  %47 = load ptr, ptr getelementptr inbounds nuw (%struct.xcgroup_t, ptr getelementptr inbounds ([9 x %struct.xcgroup_t], ptr @int_cg, i64 0, i64 3), i32 0, i32 1), align 8
  %48 = load ptr, ptr %5, align 8
  %49 = getelementptr inbounds nuw %struct.stepd_step_rec_t, ptr %48, i32 0, i32 5
  %50 = getelementptr inbounds [64 x i8], ptr %8, i64 0, i64 0
  %51 = call ptr @log_build_step_id_str(ptr noundef %49, ptr noundef %50, i32 noundef 64, i16 noundef zeroext 6)
  call void (ptr, ptr, ...) @_xstrfmtcat(ptr noundef %7, ptr noundef @.str.18, ptr noundef %47, ptr noundef %51)
  %52 = load ptr, ptr %7, align 8
  %53 = call i32 @common_cgroup_create(ptr noundef @int_cg_ns, ptr noundef getelementptr inbounds ([9 x %struct.xcgroup_t], ptr @int_cg, i64 0, i64 4), ptr noundef %52, i32 noundef 0, i32 noundef 0)
  %54 = icmp ne i32 %53, 0
  br i1 %54, label %55, label %59

55:                                               ; preds = %43
  %56 = load ptr, ptr %5, align 8
  %57 = getelementptr inbounds nuw %struct.stepd_step_rec_t, ptr %56, i32 0, i32 5
  %58 = call i32 (ptr, ...) @error(ptr noundef @.str.19, ptr noundef %57)
  store i32 -1, ptr %6, align 4
  br label %114

59:                                               ; preds = %43
  %60 = call i32 @common_cgroup_instantiate(ptr noundef getelementptr inbounds ([9 x %struct.xcgroup_t], ptr @int_cg, i64 0, i64 4))
  %61 = icmp ne i32 %60, 0
  br i1 %61, label %62, label %66

62:                                               ; preds = %59
  call void @common_cgroup_destroy(ptr noundef getelementptr inbounds ([9 x %struct.xcgroup_t], ptr @int_cg, i64 0, i64 4))
  %63 = load ptr, ptr %5, align 8
  %64 = getelementptr inbounds nuw %struct.stepd_step_rec_t, ptr %63, i32 0, i32 5
  %65 = call i32 (ptr, ...) @error(ptr noundef @.str.20, ptr noundef %64)
  store i32 -1, ptr %6, align 4
  br label %114

66:                                               ; preds = %59
  call void @slurm_xfree(ptr noundef %7)
  %67 = load ptr, ptr getelementptr inbounds nuw (%struct.xcgroup_t, ptr getelementptr inbounds ([9 x %struct.xcgroup_t], ptr @int_cg, i64 0, i64 4), i32 0, i32 2), align 16
  %68 = load ptr, ptr @int_cg_ns, align 8
  %69 = call i32 @_enable_subtree_control(ptr noundef %67, ptr noundef %68)
  %70 = call i32 @common_cgroup_unlock(ptr noundef @int_cg)
  %71 = load ptr, ptr getelementptr inbounds nuw (%struct.xcgroup_t, ptr getelementptr inbounds ([9 x %struct.xcgroup_t], ptr @int_cg, i64 0, i64 4), i32 0, i32 1), align 8
  call void (ptr, ptr, ...) @_xstrfmtcat(ptr noundef %7, ptr noundef @.str.21, ptr noundef %71)
  %72 = load ptr, ptr %7, align 8
  %73 = call i32 @common_cgroup_create(ptr noundef @int_cg_ns, ptr noundef getelementptr inbounds ([9 x %struct.xcgroup_t], ptr @int_cg, i64 0, i64 6), ptr noundef %72, i32 noundef 0, i32 noundef 0)
  %74 = icmp ne i32 %73, 0
  br i1 %74, label %75, label %79

75:                                               ; preds = %66
  %76 = load ptr, ptr %5, align 8
  %77 = getelementptr inbounds nuw %struct.stepd_step_rec_t, ptr %76, i32 0, i32 5
  %78 = call i32 (ptr, ...) @error(ptr noundef @.str.22, ptr noundef %77)
  store i32 -1, ptr %6, align 4
  br label %114

79:                                               ; preds = %66
  %80 = call i32 @common_cgroup_instantiate(ptr noundef getelementptr inbounds ([9 x %struct.xcgroup_t], ptr @int_cg, i64 0, i64 6))
  %81 = icmp ne i32 %80, 0
  br i1 %81, label %82, label %86

82:                                               ; preds = %79
  call void @common_cgroup_destroy(ptr noundef getelementptr inbounds ([9 x %struct.xcgroup_t], ptr @int_cg, i64 0, i64 6))
  %83 = load ptr, ptr %5, align 8
  %84 = getelementptr inbounds nuw %struct.stepd_step_rec_t, ptr %83, i32 0, i32 5
  %85 = call i32 (ptr, ...) @error(ptr noundef @.str.23, ptr noundef %84)
  store i32 -1, ptr %6, align 4
  br label %114

86:                                               ; preds = %79
  call void @slurm_xfree(ptr noundef %7)
  %87 = load ptr, ptr getelementptr inbounds nuw (%struct.xcgroup_t, ptr getelementptr inbounds ([9 x %struct.xcgroup_t], ptr @int_cg, i64 0, i64 6), i32 0, i32 2), align 16
  %88 = load ptr, ptr @int_cg_ns, align 8
  %89 = call i32 @_enable_subtree_control(ptr noundef %87, ptr noundef %88)
  %90 = load ptr, ptr getelementptr inbounds nuw (%struct.xcgroup_t, ptr getelementptr inbounds ([9 x %struct.xcgroup_t], ptr @int_cg, i64 0, i64 4), i32 0, i32 1), align 8
  call void (ptr, ptr, ...) @_xstrfmtcat(ptr noundef %7, ptr noundef @.str.24, ptr noundef %90)
  %91 = load ptr, ptr %7, align 8
  %92 = call i32 @common_cgroup_create(ptr noundef @int_cg_ns, ptr noundef getelementptr inbounds ([9 x %struct.xcgroup_t], ptr @int_cg, i64 0, i64 5), ptr noundef %91, i32 noundef 0, i32 noundef 0)
  %93 = icmp ne i32 %92, 0
  br i1 %93, label %94, label %98

94:                                               ; preds = %86
  %95 = load ptr, ptr %5, align 8
  %96 = getelementptr inbounds nuw %struct.stepd_step_rec_t, ptr %95, i32 0, i32 5
  %97 = call i32 (ptr, ...) @error(ptr noundef @.str.25, ptr noundef %96)
  store i32 -1, ptr %6, align 4
  br label %114

98:                                               ; preds = %86
  %99 = call i32 @common_cgroup_instantiate(ptr noundef getelementptr inbounds ([9 x %struct.xcgroup_t], ptr @int_cg, i64 0, i64 5))
  %100 = icmp ne i32 %99, 0
  br i1 %100, label %101, label %105

101:                                              ; preds = %98
  call void @common_cgroup_destroy(ptr noundef getelementptr inbounds ([9 x %struct.xcgroup_t], ptr @int_cg, i64 0, i64 5))
  %102 = load ptr, ptr %5, align 8
  %103 = getelementptr inbounds nuw %struct.stepd_step_rec_t, ptr %102, i32 0, i32 5
  %104 = call i32 (ptr, ...) @error(ptr noundef @.str.26, ptr noundef %103)
  store i32 -1, ptr %6, align 4
  br label %114

105:                                              ; preds = %98
  call void @slurm_xfree(ptr noundef %7)
  %106 = load ptr, ptr %5, align 8
  %107 = getelementptr inbounds nuw %struct.stepd_step_rec_t, ptr %106, i32 0, i32 78
  %108 = load i32, ptr %107, align 8
  %109 = call i32 @common_cgroup_move_process(ptr noundef getelementptr inbounds ([9 x %struct.xcgroup_t], ptr @int_cg, i64 0, i64 5), i32 noundef %108)
  %110 = icmp ne i32 %109, 0
  br i1 %110, label %111, label %113

111:                                              ; preds = %105
  %112 = call i32 (ptr, ...) @error(ptr noundef @.str.27)
  store i32 -1, ptr %6, align 4
  br label %113

113:                                              ; preds = %111, %105
  br label %114

114:                                              ; preds = %113, %101, %94, %82, %75, %62, %55, %37, %28
  call void @slurm_xfree(ptr noundef %7)
  %115 = load i32, ptr %6, align 4
  %116 = icmp ne i32 %115, 0
  br i1 %116, label %117, label %120

117:                                              ; preds = %114
  %118 = load i16, ptr @step_active_cnt, align 2
  %119 = add i16 %118, -1
  store i16 %119, ptr @step_active_cnt, align 2
  br label %120

120:                                              ; preds = %117, %114
  %121 = load i32, ptr %6, align 4
  store i32 %121, ptr %3, align 4
  store i32 1, ptr %9, align 4
  br label %122

122:                                              ; preds = %120, %12
  call void @llvm.lifetime.end.p0(i64 64, ptr %8) #10
  call void @llvm.lifetime.end.p0(i64 8, ptr %7) #10
  call void @llvm.lifetime.end.p0(i64 4, ptr %6) #10
  %123 = load i32, ptr %3, align 4
  ret i32 %123
}