; Function Attrs: nounwind uwtable
define dso_local range(i32 -1, 1) i32 @cgroup_p_step_create(i32 noundef %0, ptr noundef %1) local_unnamed_addr #0 {
  %3 = alloca ptr, align 8
  %4 = alloca [64 x i8], align 16
  call void @llvm.lifetime.start.p0(i64 8, ptr nonnull %3) #17
  store ptr null, ptr %3, align 8
  call void @llvm.lifetime.start.p0(i64 64, ptr nonnull %4) #17
  %5 = tail call i32 @common_cgroup_lock(ptr noundef nonnull @int_cg) #17
  %.not = icmp eq i32 %5, 0
  br i1 %.not, label %11, label %6

6:                                                ; preds = %2
  %7 = zext i32 %0 to i64
  %8 = getelementptr inbounds nuw [5 x ptr], ptr @ctl_names, i64 0, i64 %7
  %9 = load ptr, ptr %8, align 8
  %10 = tail call i32 (ptr, ...) @error(ptr noundef nonnull @.str.14, ptr noundef %9) #17
  br label %78

11:                                               ; preds = %2
  %12 = load i16, ptr @step_active_cnt, align 2
  %13 = add i16 %12, 1
  store i16 %13, ptr @step_active_cnt, align 2
  %14 = getelementptr inbounds nuw i8, ptr %1, i64 112
  %15 = getelementptr inbounds nuw i8, ptr %1, i64 120
  %16 = load i32, ptr %15, align 8
  call void (ptr, ptr, ...) @_xstrfmtcat(ptr noundef nonnull %3, ptr noundef nonnull @.str.15, i32 noundef %16) #17
  %17 = load ptr, ptr %3, align 8
  %18 = call i32 @common_cgroup_create(ptr noundef nonnull @int_cg_ns, ptr noundef nonnull getelementptr inbounds nuw (i8, ptr @int_cg, i64 120), ptr noundef %17, i32 noundef 0, i32 noundef 0) #17
  %.not15 = icmp eq i32 %18, 0
  br i1 %.not15, label %22, label %19

19:                                               ; preds = %11
  %20 = load i32, ptr %15, align 8
  %21 = call i32 (ptr, ...) @error(ptr noundef nonnull @.str.16, i32 noundef %20) #17
  br label %75

22:                                               ; preds = %11
  %23 = call i32 @common_cgroup_instantiate(ptr noundef nonnull getelementptr inbounds nuw (i8, ptr @int_cg, i64 120)) #17
  %.not16 = icmp eq i32 %23, 0
  br i1 %.not16, label %27, label %24

24:                                               ; preds = %22
  call void @common_cgroup_destroy(ptr noundef nonnull getelementptr inbounds nuw (i8, ptr @int_cg, i64 120)) #17
  %25 = load i32, ptr %15, align 8
  %26 = call i32 (ptr, ...) @error(ptr noundef nonnull @.str.17, i32 noundef %25) #17
  br label %75

27:                                               ; preds = %22
  call void @slurm_xfree(ptr noundef nonnull %3) #17
  %28 = load ptr, ptr getelementptr inbounds nuw (i8, ptr @int_cg, i64 136), align 8
  %29 = load ptr, ptr @int_cg_ns, align 8
  %30 = call fastcc i32 @_enable_subtree_control(ptr noundef %28, ptr noundef %29)
  %31 = load ptr, ptr getelementptr inbounds nuw (i8, ptr @int_cg, i64 128), align 16
  %32 = call ptr @log_build_step_id_str(ptr noundef nonnull %14, ptr noundef nonnull %4, i32 noundef 64, i16 noundef zeroext 6) #17
  call void (ptr, ptr, ...) @_xstrfmtcat(ptr noundef nonnull %3, ptr noundef nonnull @.str.18, ptr noundef %31, ptr noundef %32) #17
  %33 = load ptr, ptr %3, align 8
  %34 = call i32 @common_cgroup_create(ptr noundef nonnull @int_cg_ns, ptr noundef nonnull getelementptr inbounds nuw (i8, ptr @int_cg, i64 160), ptr noundef %33, i32 noundef 0, i32 noundef 0) #17
  %.not17 = icmp eq i32 %34, 0
  br i1 %.not17, label %37, label %35

35:                                               ; preds = %27
  %36 = call i32 (ptr, ...) @error(ptr noundef nonnull @.str.19, ptr noundef nonnull %14) #17
  br label %75

37:                                               ; preds = %27
  %38 = call i32 @common_cgroup_instantiate(ptr noundef nonnull getelementptr inbounds nuw (i8, ptr @int_cg, i64 160)) #17
  %.not18 = icmp eq i32 %38, 0
  br i1 %.not18, label %41, label %39

39:                                               ; preds = %37
  call void @common_cgroup_destroy(ptr noundef nonnull getelementptr inbounds nuw (i8, ptr @int_cg, i64 160)) #17
  %40 = call i32 (ptr, ...) @error(ptr noundef nonnull @.str.20, ptr noundef nonnull %14) #17
  br label %75

41:                                               ; preds = %37
  call void @slurm_xfree(ptr noundef nonnull %3) #17
  %42 = load ptr, ptr getelementptr inbounds nuw (i8, ptr @int_cg, i64 176), align 16
  %43 = load ptr, ptr @int_cg_ns, align 8
  %44 = call fastcc i32 @_enable_subtree_control(ptr noundef %42, ptr noundef %43)
  %45 = call i32 @common_cgroup_unlock(ptr noundef nonnull @int_cg) #17
  %46 = load ptr, ptr getelementptr inbounds nuw (i8, ptr @int_cg, i64 168), align 8
  call void (ptr, ptr, ...) @_xstrfmtcat(ptr noundef nonnull %3, ptr noundef nonnull @.str.21, ptr noundef %46) #17
  %47 = load ptr, ptr %3, align 8
  %48 = call i32 @common_cgroup_create(ptr noundef nonnull @int_cg_ns, ptr noundef nonnull getelementptr inbounds nuw (i8, ptr @int_cg, i64 240), ptr noundef %47, i32 noundef 0, i32 noundef 0) #17
  %.not19 = icmp eq i32 %48, 0
  br i1 %.not19, label %51, label %49

49:                                               ; preds = %41
  %50 = call i32 (ptr, ...) @error(ptr noundef nonnull @.str.22, ptr noundef nonnull %14) #17
  br label %75

51:                                               ; preds = %41
  %52 = call i32 @common_cgroup_instantiate(ptr noundef nonnull getelementptr inbounds nuw (i8, ptr @int_cg, i64 240)) #17
  %.not20 = icmp eq i32 %52, 0
  br i1 %.not20, label %55, label %53

53:                                               ; preds = %51
  call void @common_cgroup_destroy(ptr noundef nonnull getelementptr inbounds nuw (i8, ptr @int_cg, i64 240)) #17
  %54 = call i32 (ptr, ...) @error(ptr noundef nonnull @.str.23, ptr noundef nonnull %14) #17
  br label %75

55:                                               ; preds = %51
  call void @slurm_xfree(ptr noundef nonnull %3) #17
  %56 = load ptr, ptr getelementptr inbounds nuw (i8, ptr @int_cg, i64 256), align 16
  %57 = load ptr, ptr @int_cg_ns, align 8
  %58 = call fastcc i32 @_enable_subtree_control(ptr noundef %56, ptr noundef %57)
  %59 = load ptr, ptr getelementptr inbounds nuw (i8, ptr @int_cg, i64 168), align 8
  call void (ptr, ptr, ...) @_xstrfmtcat(ptr noundef nonnull %3, ptr noundef nonnull @.str.24, ptr noundef %59) #17
  %60 = load ptr, ptr %3, align 8
  %61 = call i32 @common_cgroup_create(ptr noundef nonnull @int_cg_ns, ptr noundef nonnull getelementptr inbounds nuw (i8, ptr @int_cg, i64 200), ptr noundef %60, i32 noundef 0, i32 noundef 0) #17
  %.not21 = icmp eq i32 %61, 0
  br i1 %.not21, label %64, label %62

62:                                               ; preds = %55
  %63 = call i32 (ptr, ...) @error(ptr noundef nonnull @.str.25, ptr noundef nonnull %14) #17
  br label %75

64:                                               ; preds = %55
  %65 = call i32 @common_cgroup_instantiate(ptr noundef nonnull getelementptr inbounds nuw (i8, ptr @int_cg, i64 200)) #17
  %.not22 = icmp eq i32 %65, 0
  br i1 %.not22, label %68, label %66

66:                                               ; preds = %64
  call void @common_cgroup_destroy(ptr noundef nonnull getelementptr inbounds nuw (i8, ptr @int_cg, i64 200)) #17
  %67 = call i32 (ptr, ...) @error(ptr noundef nonnull @.str.26, ptr noundef nonnull %14) #17
  br label %75

68:                                               ; preds = %64
  call void @slurm_xfree(ptr noundef nonnull %3) #17
  %69 = getelementptr inbounds nuw i8, ptr %1, i64 672
  %70 = load i32, ptr %69, align 8
  %71 = call i32 @common_cgroup_move_process(ptr noundef nonnull getelementptr inbounds nuw (i8, ptr @int_cg, i64 200), i32 noundef %70) #17
  %.not23 = icmp eq i32 %71, 0
  br i1 %.not23, label %74, label %72

72:                                               ; preds = %68
  %73 = call i32 (ptr, ...) @error(ptr noundef nonnull @.str.27) #17
  br label %75

74:                                               ; preds = %68
  call void @slurm_xfree(ptr noundef nonnull %3) #17
  br label %78

75:                                               ; preds = %19, %24, %35, %39, %49, %53, %62, %66, %72
  call void @slurm_xfree(ptr noundef nonnull %3) #17
  %76 = load i16, ptr @step_active_cnt, align 2
  %77 = add i16 %76, -1
  store i16 %77, ptr @step_active_cnt, align 2
  br label %78

78:                                               ; preds = %74, %75, %6
  %.014 = phi i32 [ -1, %6 ], [ -1, %75 ], [ 0, %74 ]
  call void @llvm.lifetime.end.p0(i64 64, ptr nonnull %4) #17
  call void @llvm.lifetime.end.p0(i64 8, ptr nonnull %3) #17
  ret i32 %.014
}